target datalayout = "e-m:e-p270:32:32-p271:32:32-p272:64:64-i64:64-i128:128-f80:128-n8:16:32:64-S128"
target triple = "x86_64-pc-linux-gnu"

%struct.lexbor_array_obj_t = type { ptr, i64, i64, i64 }

; Function Attrs: nounwind uwtable
define internal ptr @lexbor_array_obj_last(ptr noundef %0) #0 {
  %2 = alloca ptr, align 8
  %3 = alloca ptr, align 8
  store ptr %0, ptr %3, align 8
  %4 = load ptr, ptr %3, align 8
  %5 = getelementptr inbounds %struct.lexbor_array_obj_t, ptr %4, i32 0, i32 2
  %6 = load i64, ptr %5, align 8
  %7 = icmp eq i64 %6, 0
  br i1 %7, label %8, label %9

8:                                                ; preds = %1
  store ptr null, ptr %2, align 8
  br label %22

9:                                                ; preds = %1
  %10 = load ptr, ptr %3, align 8
  %11 = getelementptr inbounds %struct.lexbor_array_obj_t, ptr %10, i32 0, i32 0
  %12 = load ptr, ptr %11, align 8
  %13 = load ptr, ptr %3, align 8
  %14 = getelementptr inbounds %struct.lexbor_array_obj_t, ptr %13, i32 0, i32 2
  %15 = load i64, ptr %14, align 8
  %16 = sub i64 %15, 1
  %17 = load ptr, ptr %3, align 8
  %18 = getelementptr inbounds %struct.lexbor_array_obj_t, ptr %17, i32 0, i32 3
  %19 = load i64, ptr %18, align 8
  %20 = mul i64 %16, %19
  %21 = getelementptr inbounds i8, ptr %12, i64 %20
  store ptr %21, ptr %2, align 8
  br label %22

22:                                               ; preds = %9, %8
  %23 = load ptr, ptr %2, align 8
  ret ptr %23
}

; Function Attrs: nounwind uwtable
define hidden ptr @lexbor_array_obj_last_noi(ptr noundef %0) #0 {
  %2 = alloca ptr, align 8
  store ptr %0, ptr %2, align 8
  %3 = load ptr, ptr %2, align 8
  %4 = call ptr @lexbor_array_obj_last(ptr noundef %3)
  ret ptr %4
}