; Function Attrs: mustprogress nofree norecurse nosync nounwind willreturn memory(argmem: read) uwtable
define hidden ptr @lexbor_array_obj_last_noi(ptr nocapture noundef readonly %0) local_unnamed_addr #7 {
  %2 = getelementptr inbounds i8, ptr %0, i64 16
  %3 = load i64, ptr %2, align 8
  %4 = icmp eq i64 %3, 0
  br i1 %4, label %lexbor_array_obj_last.exit, label %5

5:                                                ; preds = %1
  %6 = load ptr, ptr %0, align 8
  %7 = add i64 %3, -1
  %8 = getelementptr inbounds i8, ptr %0, i64 24
  %9 = load i64, ptr %8, align 8
  %10 = mul i64 %9, %7
  %11 = getelementptr inbounds i8, ptr %6, i64 %10
  br label %lexbor_array_obj_last.exit

lexbor_array_obj_last.exit:                       ; preds = %1, %5
  %.0.i = phi ptr [ %11, %5 ], [ null, %1 ]
  ret ptr %.0.i
}